(iclasses
Graph
p0
(dp1
S'vertexlst'
p2
(lp3
(iclasses
Vertex
p4
(dp5
S'y'
p6
I5
sS'x'
p7
I12
sS'visited'
p8
I00
sba(iclasses
Vertex
p9
(dp10
g6
I5
sg7
I13
sg8
I00
sba(iclasses
Vertex
p11
(dp12
g6
I7
sg7
I15
sg8
I00
sba(iclasses
Vertex
p13
(dp14
g6
I26
sg7
I11
sg8
I00
sbasS'adjmatrix'
p15
cnumpy.core.multiarray
_reconstruct
p16
(cnumpy
ndarray
p17
(I0
tp18
S'b'
p19
tp20
Rp21
(I1
(I4
I4
tp22
cnumpy
dtype
p23
(S'O8'
p24
I0
I1
tp25
Rp26
(I3
S'|'
p27
NNNI-1
I-1
I63
tp28
bI00
(lp29
Na(iclasses
Edge
p30
(dp31
S'max_dist'
p32
F1.0
sS'startv'
p33
g4
sS'iscurve'
p34
I00
sS'endv'
p35
g9
sbaNaNag30
aNa(iclasses
Edge
p36
(dp37
g32
F2.8284271247461903
sg33
g9
sg34
I00
sg35
g11
sbaNaNag36
aNa(iclasses
Edge
p38
(dp39
g32
F19.4164878389476
sg33
g11
sg34
I00
sg35
g13
sbaNaNag38
aNatp40
bsb.