(iclasses
Graph
p0
(dp1
S'vertexlst'
p2
(lp3
(iclasses
Vertex
p4
(dp5
S'y'
p6
I3
sS'x'
p7
I15
sS'visited'
p8
I00
sba(iclasses
Vertex
p9
(dp10
g6
I14
sg7
I12
sg8
I00
sba(iclasses
Vertex
p11
(dp12
g6
I20
sg7
I12
sg8
I00
sba(iclasses
Vertex
p13
(dp14
g6
I22
sg7
I15
sg8
I00
sba(iclasses
Vertex
p15
(dp16
g6
I31
sg7
I37
sg8
I00
sbasS'adjmatrix'
p17
(lp18
(lp19
Na(iclasses
Edge
p20
(dp21
S'max_dist'
p22
F11.40175425099138
sS'startv'
p23
g4
sS'iscurve'
p24
I00
sS'endv'
p25
g9
sbaNaNaNaa(lp26
g20
aNa(iclasses
Edge
p27
(dp28
g22
F6.0
sg23
g9
sg24
I00
sg25
g11
sbaNaNaa(lp29
Nag27
aNa(iclasses
Edge
p30
(dp31
g22
F2.23606797749979
sg23
g11
sg24
I00
sg25
g13
sbaNaa(lp32
NaNag30
aNa(iclasses
Edge
p33
(dp34
g22
F23.769728648009426
sg23
g13
sg24
I00
sg25
g15
sbaa(lp35
NaNaNag33
aNaasb.