(iclasses
Graph
p0
(dp1
S'vertexlst'
p2
(lp3
(iclasses
Vertex
p4
(dp5
S'y'
p6
I0
sS'x'
p7
I129
sS'visited'
p8
I00
sbasS'adjmatrix'
p9
cnumpy.core.multiarray
_reconstruct
p10
(cnumpy
ndarray
p11
(I0
tp12
S'b'
p13
tp14
Rp15
(I1
(I1
I1
tp16
cnumpy
dtype
p17
(S'O8'
p18
I0
I1
tp19
Rp20
(I3
S'|'
p21
NNNI-1
I-1
I63
tp22
bI00
(lp23
Natp24
bsb.