(iclasses
Graph
p0
(dp1
S'vertexlst'
p2
(lp3
(iclasses
Vertex
p4
(dp5
S'y'
p6
I0
sS'x'
p7
I86
sS'visited'
p8
I00
sba(iclasses
Vertex
p9
(dp10
g6
I0
sg7
I113
sg8
I00
sba(iclasses
Vertex
p11
(dp12
g6
I7
sg7
I88
sg8
I00
sba(iclasses
Vertex
p13
(dp14
g6
I8
sg7
I87
sg8
I00
sba(iclasses
Vertex
p15
(dp16
g6
I19
sg7
I76
sg8
I00
sba(iclasses
Vertex
p17
(dp18
g6
I21
sg7
I75
sg8
I00
sba(iclasses
Vertex
p19
(dp20
g6
I22
sg7
I74
sg8
I00
sba(iclasses
Vertex
p21
(dp22
g6
I32
sg7
I69
sg8
I00
sba(iclasses
Vertex
p23
(dp24
g6
I160
sg7
I129
sg8
I00
sbasS'adjmatrix'
p25
cnumpy.core.multiarray
_reconstruct
p26
(cnumpy
ndarray
p27
(I0
tp28
S'b'
p29
tp30
Rp31
(I1
(I9
I9
tp32
cnumpy
dtype
p33
(S'O8'
p34
I0
I1
tp35
Rp36
(I3
S'|'
p37
NNNI-1
I-1
I63
tp38
bI00
(lp39
NaNaNaNaNaNaNaNaNaNaNaNaNaNaNaNaNaNaNaNaNa(iclasses
Edge
p40
(dp41
S'max_dist'
p42
F1.4142135623730951
sS'startv'
p43
g11
sS'iscurve'
p44
I00
sS'endv'
p45
g13
sbaNaNaNaNaNaNaNag40
aNa(iclasses
Edge
p46
(dp47
g42
F15.556349186104045
sg43
g13
sg44
I00
sg45
g15
sbaNaNaNaNaNaNaNag46
aNa(iclasses
Edge
p48
(dp49
g42
F2.23606797749979
sg43
g15
sg44
I00
sg45
g17
sbaNaNaNaNaNaNaNag48
aNa(iclasses
Edge
p50
(dp51
g42
F1.4142135623730951
sg43
g17
sg44
I00
sg45
g19
sbaNaNaNaNaNaNaNag50
aNaNaNaNaNaNaNaNaNaNaNaNaNaNaNaNaNaNaNaNaNatp52
bsb.