(iclasses
Graph
p0
(dp1
S'vertexlst'
p2
(lp3
(iclasses
Vertex
p4
(dp5
S'y'
p6
I0
sS'x'
p7
I2
sS'visited'
p8
I00
sba(iclasses
Vertex
p9
(dp10
g6
I2
sg7
I8
sg8
I00
sba(iclasses
Vertex
p11
(dp12
g6
I4
sg7
I11
sg8
I00
sba(iclasses
Vertex
p13
(dp14
g6
I5
sg7
I12
sg8
I00
sba(iclasses
Vertex
p15
(dp16
g6
I23
sg7
I10
sg8
I00
sba(iclasses
Vertex
p17
(dp18
g6
I32
sg7
I35
sg8
I00
sba(iclasses
Vertex
p19
(dp20
g6
I31
sg7
I36
sg8
I00
sbasS'adjmatrix'
p21
cnumpy.core.multiarray
_reconstruct
p22
(cnumpy
ndarray
p23
(I0
tp24
S'b'
p25
tp26
Rp27
(I1
(I7
I7
tp28
cnumpy
dtype
p29
(S'O8'
p30
I0
I1
tp31
Rp32
(I3
S'|'
p33
NNNI-1
I-1
I63
tp34
bI00
(lp35
NaNaNaNaNaNaNaNaNa(iclasses
Edge
p36
(dp37
S'max_dist'
p38
F3.605551275463989
sS'startv'
p39
g9
sS'iscurve'
p40
I00
sS'endv'
p41
g11
sbaNaNaNaNaNag36
aNa(iclasses
Edge
p42
(dp43
g38
F1.4142135623730951
sg39
g11
sg40
I00
sg41
g13
sbaNaNaNaNaNag42
aNa(iclasses
Edge
p44
(dp45
g38
F18.110770276274835
sg39
g13
sg40
I00
sg41
g15
sbaNaNaNaNaNag44
aNaNaNaNaNaNaNaNaNa(iclasses
Edge
p46
(dp47
g38
F1.4142135623730951
sg39
g17
sg40
I00
sg41
g19
sbaNaNaNaNaNag46
aNatp48
bsb.